; Function Attrs: mustprogress uwtable
define noundef i32 @_ZNK6casadi6Nlpsol8init_memEPv(ptr noundef nonnull align 8 dereferenceable(1928) %0, ptr noundef %1) unnamed_addr #3 align 2 personality ptr @__gxx_personality_v0 {
  %3 = alloca %"class.std::__cxx11::basic_string", align 8
  %4 = alloca %"class.std::allocator.0", align 1
  %5 = tail call noundef i32 @_ZNK6casadi14OracleFunction8init_memEPv(ptr noundef nonnull align 8 dereferenceable(1520) %0, ptr noundef %1)
  %.not = icmp eq i32 %5, 0
  br i1 %.not, label %6, label %17

6:                                                ; preds = %2
  call void @_ZNSaIcEC1Ev(ptr noundef nonnull align 1 dereferenceable(1) %4) #26
  %7 = invoke noundef ptr @_ZNSt7__cxx1112basic_stringIcSt11char_traitsIcESaIcEE13_M_local_dataEv(ptr noundef nonnull align 8 dereferenceable(32) %3)
          to label %.noexc unwind label %13

.noexc:                                           ; preds = %6
  invoke void @_ZNSt7__cxx1112basic_stringIcSt11char_traitsIcESaIcEE12_Alloc_hiderC1EPcRKS3_(ptr noundef nonnull align 8 dereferenceable(8) %3, ptr noundef %7, ptr noundef nonnull align 1 dereferenceable(1) %4)
          to label %.noexc11 unwind label %13

.noexc11:                                         ; preds = %.noexc
  invoke void @_ZNSt7__cxx1112basic_stringIcSt11char_traitsIcESaIcEE12_M_constructIPKcEEvT_S8_St20forward_iterator_tag(ptr noundef nonnull align 8 dereferenceable(32) %3, ptr noundef nonnull @.str.122, ptr noundef nonnull getelementptr inbounds ([13 x i8], ptr @.str.122, i64 0, i64 12))
          to label %_ZNSt7__cxx1112basic_stringIcSt11char_traitsIcESaIcEEC2IS3_EEPKcRKS3_.exit unwind label %8

8:                                                ; preds = %.noexc11
  %9 = landingpad { ptr, i32 }
          cleanup
  call void @_ZNSaIcED2Ev(ptr noundef nonnull align 1 dereferenceable(1) %3) #26
  br label %.body

_ZNSt7__cxx1112basic_stringIcSt11char_traitsIcESaIcEEC2IS3_EEPKcRKS3_.exit: ; preds = %.noexc11
  invoke void @_ZN6casadi19ProtoFunctionMemory8add_statERKNSt7__cxx1112basic_stringIcSt11char_traitsIcESaIcEEE(ptr noundef nonnull align 8 dereferenceable(56) %1, ptr noundef nonnull align 8 dereferenceable(32) %3)
          to label %10 unwind label %15

10:                                               ; preds = %_ZNSt7__cxx1112basic_stringIcSt11char_traitsIcESaIcEEC2IS3_EEPKcRKS3_.exit
  call void @_ZNSt7__cxx1112basic_stringIcSt11char_traitsIcESaIcEED1Ev(ptr noundef nonnull align 8 dereferenceable(32) %3) #26
  call void @_ZNSaIcED1Ev(ptr noundef nonnull align 1 dereferenceable(1) %4) #26
  %11 = getelementptr inbounds i8, ptr %1, i64 360
  store i8 0, ptr %11, align 8
  %12 = getelementptr inbounds i8, ptr %1, i64 364
  store i32 1, ptr %12, align 4
  br label %17

13:                                               ; preds = %.noexc, %6
  %14 = landingpad { ptr, i32 }
          cleanup
  br label %.body

15:                                               ; preds = %_ZNSt7__cxx1112basic_stringIcSt11char_traitsIcESaIcEEC2IS3_EEPKcRKS3_.exit
  %16 = landingpad { ptr, i32 }
          cleanup
  call void @_ZNSt7__cxx1112basic_stringIcSt11char_traitsIcESaIcEED1Ev(ptr noundef nonnull align 8 dereferenceable(32) %3) #26
  br label %.body

.body:                                            ; preds = %13, %8, %15
  %.pn = phi { ptr, i32 } [ %16, %15 ], [ %14, %13 ], [ %9, %8 ]
  call void @_ZNSaIcED1Ev(ptr noundef nonnull align 1 dereferenceable(1) %4) #26
  resume { ptr, i32 } %.pn

17:                                               ; preds = %2, %10
  %.09 = phi i32 [ 0, %10 ], [ 1, %2 ]
  ret i32 %.09
}